(dp0
S'show_imports'
p1
I0
sS'prj_name'
p2
S''
p3
sS'docformat'
p4
S'epytext'
p5
sS'inheritance'
p6
S'grouped'
p7
sS'help'
p8
NsS'modules'
p9
(S'/home/paepcke/EclipseWorkspaces/json_to_relation/json_to_relation/col_data_type.py'
p10
S'/home/paepcke/EclipseWorkspaces/json_to_relation/json_to_relation/edxTrackLogJSONParser.py'
p11
S'/home/paepcke/EclipseWorkspaces/json_to_relation/json_to_relation/generic_json_parser.py'
p12
S'/home/paepcke/EclipseWorkspaces/json_to_relation/json_to_relation/input_source.py'
p13
S'/home/paepcke/EclipseWorkspaces/json_to_relation/json_to_relation/json_to_relation.py'
p14
S'/home/paepcke/EclipseWorkspaces/json_to_relation/json_to_relation/mongodb.py'
p15
S'/home/paepcke/EclipseWorkspaces/json_to_relation/json_to_relation/mysqldb.py'
p16
S'/home/paepcke/EclipseWorkspaces/json_to_relation/json_to_relation/output_disposition.py'
p17
S'/home/paepcke/EclipseWorkspaces/json_to_relation/json_to_relation/locationManager.py'
p18
S'/home/paepcke/EclipseWorkspaces/json_to_relation/json_to_relation/modulestoreImporter.py'
p19
tp20
sS'private'
p21
I1
sS'prj_url'
p22
NsS'introspect_or_parse'
p23
S'both'
p24
sS'frames'
p25
I1
sS'css'
p26
S'default'
p27
sS'target'
p28
S'html'
p29
s.